target datalayout = "e-m:e-p270:32:32-p271:32:32-p272:64:64-i64:64-i128:128-f80:128-n8:16:32:64-S128"
target triple = "x86_64-pc-linux-gnu"

%class.AdaptiveWeightedAverage = type { float, i32, i32, i8, float }
%class.LinearLeastSquareFit = type { double, double, double, double, double, double, %class.AdaptiveWeightedAverage, %class.AdaptiveWeightedAverage }

; Function Attrs: mustprogress nounwind uwtable
define linkonce_odr hidden noundef float @_ZNK23AdaptiveWeightedAverage7averageEv(ptr noundef nonnull align 4 dereferenceable(20) %0) #1 comdat align 2 {
  %2 = alloca ptr, align 8
  store ptr %0, ptr %2, align 8
  %3 = load ptr, ptr %2, align 8
  %4 = getelementptr inbounds %class.AdaptiveWeightedAverage, ptr %3, i32 0, i32 0
  %5 = load float, ptr %4, align 4
  ret float %5
}

; Function Attrs: mustprogress nounwind uwtable
define linkonce_odr hidden noundef i32 @_ZNK23AdaptiveWeightedAverage5countEv(ptr noundef nonnull align 4 dereferenceable(20) %0) #1 comdat align 2 {
  %2 = alloca ptr, align 8
  store ptr %0, ptr %2, align 8
  %3 = load ptr, ptr %2, align 8
  %4 = getelementptr inbounds %class.AdaptiveWeightedAverage, ptr %3, i32 0, i32 1
  %5 = load i32, ptr %4, align 4
  ret i32 %5
}

; Function Attrs: mustprogress nounwind uwtable
define hidden noundef double @_ZN20LinearLeastSquareFit1yEd(ptr noundef nonnull align 8 dereferenceable(88) %0, double noundef %1) #1 align 2 {
  %3 = alloca double, align 8
  %4 = alloca ptr, align 8
  %5 = alloca double, align 8
  %6 = alloca double, align 8
  store ptr %0, ptr %4, align 8
  store double %1, ptr %5, align 8
  %7 = load ptr, ptr %4, align 8
  %8 = getelementptr inbounds %class.LinearLeastSquareFit, ptr %7, i32 0, i32 6
  %9 = call noundef i32 @_ZNK23AdaptiveWeightedAverage5countEv(ptr noundef nonnull align 4 dereferenceable(20) %8)
  %10 = icmp ugt i32 %9, 1
  br i1 %10, label %11, label %19

11:                                               ; preds = %2
  %12 = getelementptr inbounds %class.LinearLeastSquareFit, ptr %7, i32 0, i32 4
  %13 = load double, ptr %12, align 8
  %14 = getelementptr inbounds %class.LinearLeastSquareFit, ptr %7, i32 0, i32 5
  %15 = load double, ptr %14, align 8
  %16 = load double, ptr %5, align 8
  %17 = call double @llvm.fmuladd.f64(double %15, double %16, double %13)
  store double %17, ptr %6, align 8
  %18 = load double, ptr %6, align 8
  store double %18, ptr %3, align 8
  br label %23

19:                                               ; preds = %2
  %20 = getelementptr inbounds %class.LinearLeastSquareFit, ptr %7, i32 0, i32 7
  %21 = call noundef float @_ZNK23AdaptiveWeightedAverage7averageEv(ptr noundef nonnull align 4 dereferenceable(20) %20)
  %22 = fpext float %21 to double
  store double %22, ptr %3, align 8
  br label %23

23:                                               ; preds = %19, %11
  %24 = load double, ptr %3, align 8
  ret double %24
}