; Function Attrs: mustprogress nofree norecurse nosync nounwind willreturn memory(argmem: read) uwtable
define hidden noundef double @_ZN20LinearLeastSquareFit1yEd(ptr nocapture noundef nonnull readonly align 8 dereferenceable(88) %0, double noundef %1) local_unnamed_addr #0 align 2 {
  %3 = getelementptr inbounds i8, ptr %0, i64 52
  %4 = load i32, ptr %3, align 4
  %5 = icmp ugt i32 %4, 1
  br i1 %5, label %6, label %12

6:                                                ; preds = %2
  %7 = getelementptr inbounds i8, ptr %0, i64 32
  %8 = load double, ptr %7, align 8
  %9 = getelementptr inbounds i8, ptr %0, i64 40
  %10 = load double, ptr %9, align 8
  %11 = tail call double @llvm.fmuladd.f64(double %10, double %1, double %8)
  br label %16

12:                                               ; preds = %2
  %13 = getelementptr inbounds i8, ptr %0, i64 68
  %14 = load float, ptr %13, align 4
  %15 = fpext float %14 to double
  br label %16

16:                                               ; preds = %12, %6
  %.0 = phi double [ %11, %6 ], [ %15, %12 ]
  ret double %.0
}